; ModuleID = '54/1020.c'
source_filename = "54/1020.c"
target datalayout = "e-m:e-p270:32:32-p271:32:32-p272:64:64-i64:64-f80:128-n8:16:32:64-S128"
target triple = "x86_64-pc-linux-gnu"

@.str = private unnamed_addr constant [5 x i8] c"%d%d\00", align 1
@.str.1 = private unnamed_addr constant [4 x i8] c"%d\0A\00", align 1

; Function Attrs: noinline nounwind uwtable
define dso_local i32 @monkeyApple(i32 %0, i32 %1) #0 {
  %3 = alloca i32, align 4
  %4 = alloca i32, align 4
  %5 = alloca i32, align 4
  %6 = alloca i32, align 4
  %7 = alloca i32, align 4
  %8 = alloca i32, align 4
  store i32 %0, i32* %3, align 4
  store i32 %1, i32* %4, align 4
  store i32 1, i32* %6, align 4
  br label %9

9:                                                ; preds = %52, %2
  store i32 1, i32* %7, align 4
  %10 = load i32, i32* %6, align 4
  store i32 %10, i32* %8, align 4
  store i32 1, i32* %5, align 4
  br label %11

11:                                               ; preds = %35, %9
  %12 = load i32, i32* %5, align 4
  %13 = load i32, i32* %3, align 4
  %14 = icmp slt i32 %12, %13
  br i1 %14, label %15, label %38

15:                                               ; preds = %11
  %16 = load i32, i32* %3, align 4
  %17 = load i32, i32* %8, align 4
  %18 = mul nsw i32 %16, %17
  %19 = load i32, i32* %4, align 4
  %20 = add nsw i32 %18, %19
  %21 = load i32, i32* %3, align 4
  %22 = sub nsw i32 %21, 1
  %23 = srem i32 %20, %22
  %24 = icmp ne i32 %23, 0
  br i1 %24, label %25, label %26

25:                                               ; preds = %15
  store i32 0, i32* %7, align 4
  br label %38

26:                                               ; preds = %15
  %27 = load i32, i32* %3, align 4
  %28 = load i32, i32* %8, align 4
  %29 = mul nsw i32 %27, %28
  %30 = load i32, i32* %4, align 4
  %31 = add nsw i32 %29, %30
  %32 = load i32, i32* %3, align 4
  %33 = sub nsw i32 %32, 1
  %34 = sdiv i32 %31, %33
  store i32 %34, i32* %8, align 4
  br label %35

35:                                               ; preds = %26
  %36 = load i32, i32* %5, align 4
  %37 = add nsw i32 %36, 1
  store i32 %37, i32* %5, align 4
  br label %11

38:                                               ; preds = %25, %11
  %39 = load i32, i32* %5, align 4
  %40 = load i32, i32* %3, align 4
  %41 = icmp eq i32 %39, %40
  br i1 %41, label %42, label %51

42:                                               ; preds = %38
  %43 = load i32, i32* %7, align 4
  %44 = icmp eq i32 %43, 1
  br i1 %44, label %45, label %51

45:                                               ; preds = %42
  %46 = load i32, i32* %3, align 4
  %47 = load i32, i32* %8, align 4
  %48 = mul nsw i32 %46, %47
  %49 = load i32, i32* %4, align 4
  %50 = add nsw i32 %48, %49
  store i32 %50, i32* %8, align 4
  br label %55

51:                                               ; preds = %42, %38
  br label %52

52:                                               ; preds = %51
  %53 = load i32, i32* %6, align 4
  %54 = add nsw i32 %53, 1
  store i32 %54, i32* %6, align 4
  br label %9

55:                                               ; preds = %45
  %56 = load i32, i32* %8, align 4
  ret i32 %56
}

; Function Attrs: noinline nounwind uwtable
define dso_local i32 @main() #0 {
  %1 = alloca i32, align 4
  %2 = alloca i32, align 4
  %3 = alloca i32, align 4
  store i32 0, i32* %1, align 4
  %4 = call i32 (i8*, ...) @__isoc99_scanf(i8* getelementptr inbounds ([5 x i8], [5 x i8]* @.str, i64 0, i64 0), i32* %2, i32* %3)
  %5 = load i32, i32* %2, align 4
  %6 = load i32, i32* %3, align 4
  %7 = call i32 @monkeyApple(i32 %5, i32 %6)
  %8 = call i32 (i8*, ...) @printf(i8* getelementptr inbounds ([4 x i8], [4 x i8]* @.str.1, i64 0, i64 0), i32 %7)
  ret i32 0
}

declare dso_local i32 @__isoc99_scanf(i8*, ...) #1

declare dso_local i32 @printf(i8*, ...) #1


!llvm.module.flags = !{!0}
!llvm.ident = !{!1}

!0 = !{i32 1, !"wchar_size", i32 4}
!1 = !{!"clang version 10.0.0-4ubuntu1 "}
